target datalayout = "e-m:e-p270:32:32-p271:32:32-p272:64:64-i64:64-i128:128-f80:128-n8:16:32:64-S128"
target triple = "x86_64-pc-linux-gnu"

@.str = private unnamed_addr constant [13 x i8] c"out_of_bound\00", align 1
@.str.1 = private unnamed_addr constant [7 x i8] c"no_obj\00", align 1

; Function Attrs: nounwind uwtable
define ptr @Wlc_ObjTypeName(ptr noundef %0) #0 {
  %2 = alloca ptr, align 8
  store ptr %0, ptr %2, align 8
  %3 = load ptr, ptr %2, align 8
  %4 = icmp ne ptr %3, null
  br i1 %4, label %5, label %22

5:                                                ; preds = %1
  %6 = load ptr, ptr %2, align 8
  %7 = load i16, ptr %6, align 8
  %8 = and i16 %7, 63
  %9 = zext i16 %8 to i32
  %10 = icmp slt i32 %9, 60
  br i1 %10, label %11, label %19

11:                                               ; preds = %5
  %12 = load ptr, ptr %2, align 8
  %13 = load i16, ptr %12, align 8
  %14 = and i16 %13, 63
  %15 = zext i16 %14 to i32
  %16 = zext i32 %15 to i64
  %17 = getelementptr inbounds [61 x ptr], ptr @Wlc_Names, i64 0, i64 %16
  %18 = load ptr, ptr %17, align 8
  br label %20

19:                                               ; preds = %5
  br label %20

20:                                               ; preds = %19, %11
  %21 = phi ptr [ %18, %11 ], [ @.str, %19 ]
  br label %23

22:                                               ; preds = %1
  br label %23

23:                                               ; preds = %22, %20
  %24 = phi ptr [ %21, %20 ], [ @.str.1, %22 ]
  ret ptr %24
}