; Function Attrs: mustprogress nofree norecurse nosync nounwind willreturn memory(argmem: read) uwtable
define ptr @Wlc_ObjTypeName(ptr noundef readonly %0) local_unnamed_addr #0 {
  %.not = icmp eq ptr %0, null
  br i1 %.not, label %10, label %2

2:                                                ; preds = %1
  %3 = load i16, ptr %0, align 8
  %4 = and i16 %3, 63
  %5 = icmp samesign ult i16 %4, 60
  br i1 %5, label %6, label %10

6:                                                ; preds = %2
  %7 = zext nneg i16 %4 to i64
  %8 = getelementptr inbounds nuw [61 x ptr], ptr @Wlc_Names, i64 0, i64 %7
  %9 = load ptr, ptr %8, align 8
  br label %10

10:                                               ; preds = %1, %6, %2
  %11 = phi ptr [ %9, %6 ], [ @.str, %2 ], [ @.str.1, %1 ]
  ret ptr %11
}